	.file	"main.c"
	.text
	.globl	update
	.type	update, @function
update:
.LFB0:
	.cfi_startproc
	pushq	%rbp
	.cfi_def_cfa_offset 16
	.cfi_offset 6, -16
	movq	%rsp, %rbp
	.cfi_def_cfa_register 6
	movq	%rdi, -8(%rbp)
	movq	-8(%rbp), %rax
	movl	(%rax), %eax
	leal	1(%rax), %edx
	movq	-8(%rbp), %rax
	movl	%edx, (%rax)
	movq	-8(%rbp), %rax
	movl	4(%rax), %eax
	leal	1(%rax), %edx
	movq	-8(%rbp), %rax
	movl	%edx, 4(%rax)
	nop
	popq	%rbp
	.cfi_def_cfa 7, 8
	ret
	.cfi_endproc
.LFE0:
	.size	update, .-update
	.section	.rodata
	.align 8
.LC0:
	.string	"Before update: x = %d, y = %d\n"
.LC1:
	.string	"After update: x = %d, y = %d\n"
	.text
	.globl	main
	.type	main, @function
main:
.LFB1:
	.cfi_startproc
	pushq	%rbp
	.cfi_def_cfa_offset 16
	.cfi_offset 6, -16
	movq	%rsp, %rbp
	.cfi_def_cfa_register 6
	subq	$16, %rsp
	movq	%fs:40, %rax
	movq	%rax, -8(%rbp)
	xorl	%eax, %eax
	movl	$1, -16(%rbp)
	movl	$2, -12(%rbp)
	movl	-12(%rbp), %edx
	movl	-16(%rbp), %eax
	leaq	.LC0(%rip), %rcx
	movl	%eax, %esi
	movq	%rcx, %rdi
	movl	$0, %eax
	call	printf@PLT
	leaq	-16(%rbp), %rax
	movq	%rax, %rdi
	call	update
	movl	-12(%rbp), %edx
	movl	-16(%rbp), %eax
	leaq	.LC1(%rip), %rcx
	movl	%eax, %esi
	movq	%rcx, %rdi
	movl	$0, %eax
	call	printf@PLT
	movl	$0, %eax
	movq	-8(%rbp), %rdx
	subq	%fs:40, %rdx
	je	.L4
	call	__stack_chk_fail@PLT
.L4:
	leave
	.cfi_def_cfa 7, 8
	ret
	.cfi_endproc
.LFE1:
	.size	main, .-main
	.ident	"GCC: (GNU) 15.2.1 20260209"
	.section	.note.GNU-stack,"",@progbits
